; ModuleID = '54/315.c'
source_filename = "54/315.c"
target datalayout = "e-m:e-p270:32:32-p271:32:32-p272:64:64-i64:64-f80:128-n8:16:32:64-S128"
target triple = "x86_64-pc-linux-gnu"

@.str = private unnamed_addr constant [5 x i8] c"%d%d\00", align 1
@.str.1 = private unnamed_addr constant [2 x i8] c"7\00", align 1
@.str.2 = private unnamed_addr constant [3 x i8] c"%d\00", align 1

; Function Attrs: noinline nounwind uwtable
define dso_local void @main() #0 {
  %1 = alloca i32, align 4
  %2 = alloca i32, align 4
  %3 = alloca i32, align 4
  %4 = alloca i32, align 4
  store i32 1, i32* %4, align 4
  %5 = call i32 (i8*, ...) @__isoc99_scanf(i8* getelementptr inbounds ([5 x i8], [5 x i8]* @.str, i64 0, i64 0), i32* %1, i32* %2)
  %6 = load i32, i32* %1, align 4
  %7 = icmp eq i32 %6, 2
  br i1 %7, label %8, label %10

8:                                                ; preds = %0
  %9 = call i32 (i8*, ...) @printf(i8* getelementptr inbounds ([2 x i8], [2 x i8]* @.str.1, i64 0, i64 0))
  br label %32

10:                                               ; preds = %0
  store i32 1, i32* %3, align 4
  br label %11

11:                                               ; preds = %19, %10
  %12 = load i32, i32* %3, align 4
  %13 = load i32, i32* %1, align 4
  %14 = icmp sle i32 %12, %13
  br i1 %14, label %15, label %22

15:                                               ; preds = %11
  %16 = load i32, i32* %4, align 4
  %17 = load i32, i32* %1, align 4
  %18 = mul nsw i32 %16, %17
  store i32 %18, i32* %4, align 4
  br label %19

19:                                               ; preds = %15
  %20 = load i32, i32* %3, align 4
  %21 = add nsw i32 %20, 1
  store i32 %21, i32* %3, align 4
  br label %11

22:                                               ; preds = %11
  %23 = load i32, i32* %4, align 4
  %24 = load i32, i32* %1, align 4
  %25 = load i32, i32* %2, align 4
  %26 = mul nsw i32 %24, %25
  %27 = sub nsw i32 %23, %26
  %28 = load i32, i32* %2, align 4
  %29 = add nsw i32 %27, %28
  store i32 %29, i32* %4, align 4
  %30 = load i32, i32* %4, align 4
  %31 = call i32 (i8*, ...) @printf(i8* getelementptr inbounds ([3 x i8], [3 x i8]* @.str.2, i64 0, i64 0), i32 %30)
  br label %32

32:                                               ; preds = %22, %8
  ret void
}

declare dso_local i32 @__isoc99_scanf(i8*, ...) #1

declare dso_local i32 @printf(i8*, ...) #1


!llvm.module.flags = !{!0}
!llvm.ident = !{!1}

!0 = !{i32 1, !"wchar_size", i32 4}
!1 = !{!"clang version 10.0.0-4ubuntu1 "}
